; Function Attrs: nounwind uwtable
define void @trace2(ptr noundef %0) local_unnamed_addr #0 {
  tail call void @print_node(ptr noundef %0) #11
  %2 = getelementptr i8, ptr %0, i64 28
  %.val11 = load i32, ptr %2, align 4, !tbaa !3
  %3 = icmp sgt i32 %.val11, 0
  br i1 %3, label %.lr.ph, label %.critedge

tailrecurse.loopexit:                             ; preds = %14
  tail call void @print_node(ptr noundef nonnull %19) #11
  %4 = getelementptr i8, ptr %19, i64 28
  %.val = load i32, ptr %4, align 4, !tbaa !3
  %5 = icmp sgt i32 %.val, 0
  br i1 %5, label %.lr.ph, label %.critedge

.lr.ph:                                           ; preds = %1, %tailrecurse.loopexit
  %.val13 = phi i32 [ %.val, %tailrecurse.loopexit ], [ %.val11, %1 ]
  %.tr12 = phi ptr [ %19, %tailrecurse.loopexit ], [ %0, %1 ]
  %.val8 = load ptr, ptr %.tr12, align 8, !tbaa !13
  %6 = getelementptr i8, ptr %.tr12, i64 32
  %.val9 = load ptr, ptr %6, align 8, !tbaa !14
  %7 = getelementptr i8, ptr %.val8, i64 32
  %.val8.val = load ptr, ptr %7, align 8, !tbaa !15
  %8 = getelementptr i8, ptr %.val8.val, i64 8
  %.val8.val.val = load ptr, ptr %8, align 8, !tbaa !29
  %9 = getelementptr inbounds nuw i8, ptr %.tr12, i64 20
  %10 = load i32, ptr %9, align 4
  %11 = lshr i32 %10, 12
  %12 = add nsw i32 %11, -1
  %wide.trip.count = zext nneg i32 %.val13 to i64
  br label %14

13:                                               ; preds = %14
  %indvars.iv.next = add nuw nsw i64 %indvars.iv, 1
  %exitcond.not = icmp eq i64 %indvars.iv.next, %wide.trip.count
  br i1 %exitcond.not, label %.critedge, label %14, !llvm.loop !31

14:                                               ; preds = %.lr.ph, %13
  %indvars.iv = phi i64 [ 0, %.lr.ph ], [ %indvars.iv.next, %13 ]
  %15 = getelementptr inbounds nuw i32, ptr %.val9, i64 %indvars.iv
  %16 = load i32, ptr %15, align 4, !tbaa !33
  %17 = sext i32 %16 to i64
  %18 = getelementptr inbounds ptr, ptr %.val8.val.val, i64 %17
  %19 = load ptr, ptr %18, align 8, !tbaa !34
  %20 = getelementptr inbounds nuw i8, ptr %19, i64 20
  %21 = load i32, ptr %20, align 4
  %22 = lshr i32 %21, 12
  %.not = icmp slt i32 %22, %12
  br i1 %.not, label %13, label %tailrecurse.loopexit

.critedge:                                        ; preds = %tailrecurse.loopexit, %13, %1
  ret void
}